target datalayout = "e-m:e-p270:32:32-p271:32:32-p272:64:64-i64:64-i128:128-f80:128-n8:16:32:64-S128"
target triple = "x86_64-unknown-linux-gnu"

%"class.icu_75::UIterCollationIterator" = type { %"class.icu_75::CollationIterator.base", ptr }
%"class.icu_75::CollationIterator.base" = type <{ %"class.icu_75::UObject", ptr, ptr, %"class.icu_75::CollationIterator::CEBuffer", i32, [4 x i8], ptr, i32, i8 }>
%"class.icu_75::UObject" = type { ptr }
%"class.icu_75::CollationIterator::CEBuffer" = type { i32, %"class.icu_75::MaybeStackArray.0" }
%"class.icu_75::MaybeStackArray.0" = type { ptr, i32, i8, [40 x i64] }
%struct.UCharIterator = type { ptr, i32, i32, i32, i32, i32, ptr, ptr, ptr, ptr, ptr, ptr, ptr, ptr, ptr, ptr }
%"class.icu_75::FCDUIterCollationIterator" = type { %"class.icu_75::UIterCollationIterator", i32, i32, i32, i32, ptr, %"class.icu_75::UnicodeString" }
%"class.icu_75::UnicodeString" = type { %"class.icu_75::Replaceable", %"union.icu_75::UnicodeString::StackBufferOrFields" }
%"class.icu_75::Replaceable" = type { %"class.icu_75::UObject" }
%"union.icu_75::UnicodeString::StackBufferOrFields" = type { %struct.anon.1, [32 x i8] }
%struct.anon.1 = type { i16, i32, i32, ptr }

; Function Attrs: mustprogress uwtable
define void @_ZN6icu_7525FCDUIterCollationIterator16switchToBackwardEv(ptr noundef nonnull align 8 dereferenceable(488) %this) #1 align 2 {
entry:
  %this.addr = alloca ptr, align 8
  store ptr %this, ptr %this.addr, align 8
  %this1 = load ptr, ptr %this.addr, align 8
  %state = getelementptr inbounds %"class.icu_75::FCDUIterCollationIterator", ptr %this1, i32 0, i32 1
  %0 = load i32, ptr %state, align 8
  %cmp = icmp eq i32 %0, 0
  br i1 %cmp, label %if.then, label %if.else8

if.then:                                          ; preds = %entry
  %iter = getelementptr inbounds %"class.icu_75::UIterCollationIterator", ptr %this1, i32 0, i32 1
  %1 = load ptr, ptr %iter, align 8
  %getIndex = getelementptr inbounds %struct.UCharIterator, ptr %1, i32 0, i32 6
  %2 = load ptr, ptr %getIndex, align 8
  %iter2 = getelementptr inbounds %"class.icu_75::UIterCollationIterator", ptr %this1, i32 0, i32 1
  %3 = load ptr, ptr %iter2, align 8
  %call = call noundef i32 %2(ptr noundef %3, i32 noundef 1)
  %pos = getelementptr inbounds %"class.icu_75::FCDUIterCollationIterator", ptr %this1, i32 0, i32 3
  store i32 %call, ptr %pos, align 8
  %limit = getelementptr inbounds %"class.icu_75::FCDUIterCollationIterator", ptr %this1, i32 0, i32 4
  store i32 %call, ptr %limit, align 4
  %pos3 = getelementptr inbounds %"class.icu_75::FCDUIterCollationIterator", ptr %this1, i32 0, i32 3
  %4 = load i32, ptr %pos3, align 8
  %start = getelementptr inbounds %"class.icu_75::FCDUIterCollationIterator", ptr %this1, i32 0, i32 2
  %5 = load i32, ptr %start, align 4
  %cmp4 = icmp eq i32 %4, %5
  br i1 %cmp4, label %if.then5, label %if.else

if.then5:                                         ; preds = %if.then
  %state6 = getelementptr inbounds %"class.icu_75::FCDUIterCollationIterator", ptr %this1, i32 0, i32 1
  store i32 1, ptr %state6, align 8
  br label %if.end

if.else:                                          ; preds = %if.then
  %state7 = getelementptr inbounds %"class.icu_75::FCDUIterCollationIterator", ptr %this1, i32 0, i32 1
  store i32 2, ptr %state7, align 8
  br label %if.end

if.end:                                           ; preds = %if.else, %if.then5
  br label %if.end26

if.else8:                                         ; preds = %entry
  %state9 = getelementptr inbounds %"class.icu_75::FCDUIterCollationIterator", ptr %this1, i32 0, i32 1
  %6 = load i32, ptr %state9, align 8
  %cmp10 = icmp eq i32 %6, 2
  br i1 %cmp10, label %if.then11, label %if.else12

if.then11:                                        ; preds = %if.else8
  br label %if.end24

if.else12:                                        ; preds = %if.else8
  %state13 = getelementptr inbounds %"class.icu_75::FCDUIterCollationIterator", ptr %this1, i32 0, i32 1
  %7 = load i32, ptr %state13, align 8
  %cmp14 = icmp eq i32 %7, 3
  br i1 %cmp14, label %if.then15, label %if.end21

if.then15:                                        ; preds = %if.else12
  %iter16 = getelementptr inbounds %"class.icu_75::UIterCollationIterator", ptr %this1, i32 0, i32 1
  %8 = load ptr, ptr %iter16, align 8
  %move = getelementptr inbounds %struct.UCharIterator, ptr %8, i32 0, i32 7
  %9 = load ptr, ptr %move, align 8
  %iter17 = getelementptr inbounds %"class.icu_75::UIterCollationIterator", ptr %this1, i32 0, i32 1
  %10 = load ptr, ptr %iter17, align 8
  %start18 = getelementptr inbounds %"class.icu_75::FCDUIterCollationIterator", ptr %this1, i32 0, i32 2
  %11 = load i32, ptr %start18, align 4
  %limit19 = getelementptr inbounds %"class.icu_75::FCDUIterCollationIterator", ptr %this1, i32 0, i32 4
  %12 = load i32, ptr %limit19, align 4
  %sub = sub nsw i32 %11, %12
  %call20 = call noundef i32 %9(ptr noundef %10, i32 noundef %sub, i32 noundef 1)
  br label %if.end21

if.end21:                                         ; preds = %if.then15, %if.else12
  %start22 = getelementptr inbounds %"class.icu_75::FCDUIterCollationIterator", ptr %this1, i32 0, i32 2
  %13 = load i32, ptr %start22, align 4
  %limit23 = getelementptr inbounds %"class.icu_75::FCDUIterCollationIterator", ptr %this1, i32 0, i32 4
  store i32 %13, ptr %limit23, align 4
  br label %if.end24

if.end24:                                         ; preds = %if.end21, %if.then11
  %state25 = getelementptr inbounds %"class.icu_75::FCDUIterCollationIterator", ptr %this1, i32 0, i32 1
  store i32 1, ptr %state25, align 8
  br label %if.end26

if.end26:                                         ; preds = %if.end24, %if.end
  ret void
}