; Function Attrs: mustprogress uwtable
define void @_ZN6icu_7525FCDUIterCollationIterator16switchToBackwardEv(ptr nocapture noundef nonnull align 8 dereferenceable(488) %this) local_unnamed_addr #1 align 2 {
entry:
  %state = getelementptr inbounds i8, ptr %this, i64 400
  %0 = load i32, ptr %state, align 8
  switch i32 %0, label %if.end21 [
    i32 0, label %if.then
    i32 2, label %if.end26
    i32 3, label %if.then15
  ]

if.then:                                          ; preds = %entry
  %iter = getelementptr inbounds i8, ptr %this, i64 392
  %1 = load ptr, ptr %iter, align 8
  %getIndex = getelementptr inbounds i8, ptr %1, i64 32
  %2 = load ptr, ptr %getIndex, align 8
  %call = tail call noundef i32 %2(ptr noundef %1, i32 noundef 1)
  %pos = getelementptr inbounds i8, ptr %this, i64 408
  store i32 %call, ptr %pos, align 8
  %limit = getelementptr inbounds i8, ptr %this, i64 412
  store i32 %call, ptr %limit, align 4
  %start = getelementptr inbounds i8, ptr %this, i64 404
  %3 = load i32, ptr %start, align 4
  %cmp4 = icmp eq i32 %call, %3
  %. = select i1 %cmp4, i32 1, i32 2
  br label %if.end26

if.then15:                                        ; preds = %entry
  %iter16 = getelementptr inbounds i8, ptr %this, i64 392
  %4 = load ptr, ptr %iter16, align 8
  %move = getelementptr inbounds i8, ptr %4, i64 40
  %5 = load ptr, ptr %move, align 8
  %start18 = getelementptr inbounds i8, ptr %this, i64 404
  %6 = load i32, ptr %start18, align 4
  %limit19 = getelementptr inbounds i8, ptr %this, i64 412
  %7 = load i32, ptr %limit19, align 4
  %sub = sub nsw i32 %6, %7
  %call20 = tail call noundef i32 %5(ptr noundef %4, i32 noundef %sub, i32 noundef 1)
  br label %if.end21

if.end21:                                         ; preds = %entry, %if.then15
  %start22 = getelementptr inbounds i8, ptr %this, i64 404
  %8 = load i32, ptr %start22, align 4
  %limit23 = getelementptr inbounds i8, ptr %this, i64 412
  store i32 %8, ptr %limit23, align 4
  br label %if.end26

if.end26:                                         ; preds = %if.end21, %entry, %if.then
  %.sink = phi i32 [ %., %if.then ], [ 1, %entry ], [ 1, %if.end21 ]
  store i32 %.sink, ptr %state, align 8
  ret void
}